ccopy_reg
_reconstructor
p0
(ctf2_msgs.msg._TFMessage
TFMessage
p1
c__builtin__
object
p2
Ntp3
Rp4
(lp5
(lp6
g0
(cgeometry_msgs.msg._TransformStamped
TransformStamped
p7
g2
Ntp8
Rp9
(lp10
g0
(cstd_msgs.msg._Header
Header
p11
g2
Ntp12
Rp13
(lp14
I0
ag0
(cgenpy.rostime
Time
p15
g2
Ntp16
Rp17
(lp18
I1543331427
aI633353083
abaS'base_link'
p19
abaS'base_link_footprint'
p20
ag0
(cgeometry_msgs.msg._Transform
Transform
p21
g2
Ntp22
Rp23
(lp24
g0
(cgeometry_msgs.msg._Vector3
Vector3
p25
g2
Ntp26
Rp27
(lp28
F0.0
aF0.0
aF-0.295
abag0
(cgeometry_msgs.msg._Quaternion
Quaternion
p29
g2
Ntp30
Rp31
(lp32
F0.0
aF0.0
aF0.0
aF1.0
abababag0
(g7
g2
Ntp33
Rp34
(lp35
g0
(g11
g2
Ntp36
Rp37
(lp38
I0
ag0
(g15
g2
Ntp39
Rp40
(lp41
I1543331427
aI633353083
abaS'base_link'
p42
abaS'gps_antenna'
p43
ag0
(g21
g2
Ntp44
Rp45
(lp46
g0
(g25
g2
Ntp47
Rp48
(lp49
F0.18
aF0.0
aF1.105
abag0
(g29
g2
Ntp50
Rp51
(lp52
F0.0
aF0.0
aF0.0
aF1.0
abababag0
(g7
g2
Ntp53
Rp54
(lp55
g0
(g11
g2
Ntp56
Rp57
(lp58
I0
ag0
(g15
g2
Ntp59
Rp60
(lp61
I1543331427
aI633353083
abaS'base_link'
p62
abaS'ibeo_front_center'
p63
ag0
(g21
g2
Ntp64
Rp65
(lp66
g0
(g25
g2
Ntp67
Rp68
(lp69
F3.341
aF-0.15
aF0.053
abag0
(g29
g2
Ntp70
Rp71
(lp72
F0.0
aF0.0
aF-0.017499106784510804
aF0.9998468789078379
abababag0
(g7
g2
Ntp73
Rp74
(lp75
g0
(g11
g2
Ntp76
Rp77
(lp78
I0
ag0
(g15
g2
Ntp79
Rp80
(lp81
I1543331427
aI633353083
abaS'ibeo_front_center'
p82
abaS'ibeo_front_left'
p83
ag0
(g21
g2
Ntp84
Rp85
(lp86
g0
(g25
g2
Ntp87
Rp88
(lp89
F-0.162389
aF0.747594
aF0.0
abag0
(g29
g2
Ntp90
Rp91
(lp92
F0.0
aF0.0
aF0.3985006463684876
aF0.9171680515826408
abababag0
(g7
g2
Ntp93
Rp94
(lp95
g0
(g11
g2
Ntp96
Rp97
(lp98
I0
ag0
(g15
g2
Ntp99
Rp100
(lp101
I1543331427
aI633353083
abaS'ibeo_front_center'
p102
abaS'ibeo_front_right'
p103
ag0
(g21
g2
Ntp104
Rp105
(lp106
g0
(g25
g2
Ntp107
Rp108
(lp109
F-0.0906092
aF-0.41155
aF0.0
abag0
(g29
g2
Ntp110
Rp111
(lp112
F0.0
aF0.0
aF-0.3632436551825933
aF0.9316941810323758
abababag0
(g7
g2
Ntp113
Rp114
(lp115
g0
(g11
g2
Ntp116
Rp117
(lp118
I0
ag0
(g15
g2
Ntp119
Rp120
(lp121
I1543331427
aI633353083
abaS'base_link'
p122
abaS'ibeo_rear_center'
p123
ag0
(g21
g2
Ntp124
Rp125
(lp126
g0
(g25
g2
Ntp127
Rp128
(lp129
F-0.693
aF0.32
aF0.0
abag0
(g29
g2
Ntp130
Rp131
(lp132
F0.0
aF0.0
aF1.0
aF-2.0510342851533115e-10
abababag0
(g7
g2
Ntp133
Rp134
(lp135
g0
(g11
g2
Ntp136
Rp137
(lp138
I0
ag0
(g15
g2
Ntp139
Rp140
(lp141
I1543331427
aI633353083
abaS'imu'
p142
abaS'base_link'
p143
ag0
(g21
g2
Ntp144
Rp145
(lp146
g0
(g25
g2
Ntp147
Rp148
(lp149
F0.35
aF0.01
aF-0.575
abag0
(g29
g2
Ntp150
Rp151
(lp152
F0.0
aF0.0
aF0.0
aF1.0
abababag0
(g7
g2
Ntp153
Rp154
(lp155
g0
(g11
g2
Ntp156
Rp157
(lp158
I0
ag0
(g15
g2
Ntp159
Rp160
(lp161
I1543331427
aI633353083
abaS'base_link'
p162
abaS'radar_rear_center'
p163
ag0
(g21
g2
Ntp164
Rp165
(lp166
g0
(g25
g2
Ntp167
Rp168
(lp169
F-0.695
aF0.005
aF0.003
abag0
(g29
g2
Ntp170
Rp171
(lp172
F0.0
aF0.0
aF1.0
aF-2.0510342851533115e-10
abababaab.