ccopy_reg
_reconstructor
p0
(ctf2_msgs.msg._TFMessage
TFMessage
p1
c__builtin__
object
p2
Ntp3
Rp4
(lp5
(lp6
g0
(cgeometry_msgs.msg._TransformStamped
TransformStamped
p7
g2
Ntp8
Rp9
(lp10
g0
(cstd_msgs.msg._Header
Header
p11
g2
Ntp12
Rp13
(lp14
I0
ag0
(cgenpy.rostime
Time
p15
g2
Ntp16
Rp17
(lp18
I1543331425
aI54699018
abaS'base_link'
p19
abaS'base_link_footprint'
p20
ag0
(cgeometry_msgs.msg._Transform
Transform
p21
g2
Ntp22
Rp23
(lp24
g0
(cgeometry_msgs.msg._Vector3
Vector3
p25
g2
Ntp26
Rp27
(lp28
F0.0
aF0.0
aF-0.295
abag0
(cgeometry_msgs.msg._Quaternion
Quaternion
p29
g2
Ntp30
Rp31
(lp32
F0.0
aF0.0
aF0.0
aF1.0
abababag0
(g7
g2
Ntp33
Rp34
(lp35
g0
(g11
g2
Ntp36
Rp37
(lp38
I0
ag0
(g15
g2
Ntp39
Rp40
(lp41
I1543331425
aI54699018
abaS'base_link'
p42
abaS'gps_antenna'
p43
ag0
(g21
g2
Ntp44
Rp45
(lp46
g0
(g25
g2
Ntp47
Rp48
(lp49
F0.18
aF0.0
aF1.105
abag0
(g29
g2
Ntp50
Rp51
(lp52
F0.0
aF0.0
aF0.0
aF1.0
abababag0
(g7
g2
Ntp53
Rp54
(lp55
g0
(g11
g2
Ntp56
Rp57
(lp58
I0
ag0
(g15
g2
Ntp59
Rp60
(lp61
I1543331425
aI54699018
abaS'base_link'
p62
abaS'ibeo_front_center'
p63
ag0
(g21
g2
Ntp64
Rp65
(lp66
g0
(g25
g2
Ntp67
Rp68
(lp69
F3.677
aF-0.1325
aF0.064
abag0
(g29
g2
Ntp70
Rp71
(lp72
F0.0
aF0.0
aF0.0
aF1.0
abababag0
(g7
g2
Ntp73
Rp74
(lp75
g0
(g11
g2
Ntp76
Rp77
(lp78
I0
ag0
(g15
g2
Ntp79
Rp80
(lp81
I1543331425
aI54699018
abaS'ibeo_front_center'
p82
abaS'ibeo_front_left'
p83
ag0
(g21
g2
Ntp84
Rp85
(lp86
g0
(g25
g2
Ntp87
Rp88
(lp89
F-0.211
aF0.842
aF0.007
abag0
(g29
g2
Ntp90
Rp91
(lp92
F0.0
aF0.0
aF0.3363562296120353
aF0.941734828282981
abababag0
(g7
g2
Ntp93
Rp94
(lp95
g0
(g11
g2
Ntp96
Rp97
(lp98
I0
ag0
(g15
g2
Ntp99
Rp100
(lp101
I1543331425
aI54699018
abaS'ibeo_front_center'
p102
abaS'ibeo_front_right'
p103
ag0
(g21
g2
Ntp104
Rp105
(lp106
g0
(g25
g2
Ntp107
Rp108
(lp109
F-0.169
aF-0.525
aF0.011
abag0
(g29
g2
Ntp110
Rp111
(lp112
F0.0
aF0.0
aF-0.3338076094453646
aF0.9426412254279839
abababag0
(g7
g2
Ntp113
Rp114
(lp115
g0
(g11
g2
Ntp116
Rp117
(lp118
I0
ag0
(g15
g2
Ntp119
Rp120
(lp121
I1543331425
aI54699018
abaS'base_link'
p122
abaS'ibeo_rear_center'
p123
ag0
(g21
g2
Ntp124
Rp125
(lp126
g0
(g25
g2
Ntp127
Rp128
(lp129
F-1.106
aF-0.2375
aF0.066
abag0
(g29
g2
Ntp130
Rp131
(lp132
F0.0
aF0.0
aF1.0
aF-2.0510342851533115e-10
abababag0
(g7
g2
Ntp133
Rp134
(lp135
g0
(g11
g2
Ntp136
Rp137
(lp138
I0
ag0
(g15
g2
Ntp139
Rp140
(lp141
I1543331425
aI54699018
abaS'ibeo_rear_center'
p142
abaS'ibeo_rear_left'
p143
ag0
(g21
g2
Ntp144
Rp145
(lp146
g0
(g25
g2
Ntp147
Rp148
(lp149
F-0.379
aF-1.075
aF0.0
abag0
(g29
g2
Ntp150
Rp151
(lp152
F0.0
aF0.0
aF-0.5112996020918603
aF0.8594025348465673
abababag0
(g7
g2
Ntp153
Rp154
(lp155
g0
(g11
g2
Ntp156
Rp157
(lp158
I0
ag0
(g15
g2
Ntp159
Rp160
(lp161
I1543331425
aI54699018
abaS'ibeo_rear_center'
p162
abaS'ibeo_rear_right'
p163
ag0
(g21
g2
Ntp164
Rp165
(lp166
g0
(g25
g2
Ntp167
Rp168
(lp169
F-0.444
aF0.628
aF0.004
abag0
(g29
g2
Ntp170
Rp171
(lp172
F0.0
aF0.0
aF0.5225135818636419
aF0.8526309616522422
abababag0
(g7
g2
Ntp173
Rp174
(lp175
g0
(g11
g2
Ntp176
Rp177
(lp178
I0
ag0
(g15
g2
Ntp179
Rp180
(lp181
I1543331425
aI54699018
abaS'imu'
p182
abaS'base_link'
p183
ag0
(g21
g2
Ntp184
Rp185
(lp186
g0
(g25
g2
Ntp187
Rp188
(lp189
F-0.03725
aF0.021
aF-0.5294
abag0
(g29
g2
Ntp190
Rp191
(lp192
F0.0
aF0.0
aF0.0
aF1.0
abababaab.